(iClientGlobal
ClientGlobal
p0
(dp2
S'global_cur_src_path'
p3
S''
p4
sS'target_file_request_port'
p5
I22346
sS'my_event_port'
p6
I12345
sS'my_host_name'
p7
S'192.168.1.55'
p8
sS'my_update_port'
p9
I12349
sS'my_authentication_port'
p10
I12348
sS'target_file_port'
p11
I22347
sS'my_file_port'
p12
I12347
sS'client_global_directory'
p13
S'C:\\Users\\Chilaxus\\Desktop\\OneDir'
p14
sS'my_file_request_port'
p15
I12346
sS'password'
p16
S'qu'
p17
sS'target_authentication_port'
p18
I22348
sS'target_host_name'
p19
g8
sS'client_global_file_ignore'
p20
g4
sS'updating'
p21
I00
sS'email'
p22
S'alex'
p23
sS'target_event_port'
p24
I22345
sb.