(iClientGlobal
ClientGlobal
p0
(dp2
S'client_global_file_ignore'
p3
S''
p4
sS'global_cur_src_path'
p5
g4
sS'target_file_request_port'
p6
I22346
sS'my_event_port'
p7
I12345
sS'my_host_name'
p8
S'192.168.1.55'
p9
sS'my_authentication_port'
p10
I12348
sS'target_file_port'
p11
I22347
sS'my_file_port'
p12
I12347
sS'client_global_directory'
p13
S'C:\\Users\\Chilaxus\\Desktop\\OneDir'
p14
sS'my_file_request_port'
p15
I12346
sS'password'
p16
S'pass'
p17
sS'updating'
p18
I00
sS'target_authentication_port'
p19
I22348
sS'target_host_name'
p20
g9
sS'my_update_port'
p21
I12349
sS'target_event_port'
p22
I22345
sS'email'
p23
S'timur'
p24
sb.