(dp0
S'alex'
p1
S'Qu'
p2
sS'kevin1'
p3
S'chen'
p4
sS'big2'
p5
S'daddy'
p6
sS'big'
p7
S'daddy'
p8
sS'timur'
p9
S'aleshin'
p10
sS'alex11'
p11
S'Quuuuuu'
p12
sS'hello'
p13
S'world'
p14
sS'kevin'
p15
S'chen'
p16
s.