(dp0
S'dfewfa'
p1
(lp2
S'pass'
p3
aI20
aI1
asS'dvaisdvasdf'
p4
(lp5
S'pass'
p6
aI28
aI1
asS'david1'
p7
(lp8
S'pass2'
p9
aI2
aI0
asS'david2'
p10
(lp11
S'pass'
p12
aI12
aI1
asS'david3'
p13
(lp14
S'pass'
p15
aI13
aI1
asS'david4'
p16
(lp17
S'pass'
p18
aI14
aI1
asS'david5'
p19
(lp20
S'pass'
p21
aI15
aI1
asS'david6'
p22
(lp23
S'pass'
p24
aI16
aI1
asS'david7'
p25
(lp26
S'pass'
p27
aI17
aI1
asS'dfasdfasvafd'
p28
(lp29
S'pass'
p30
aI23
aI1
asS'asdvawefasdasdfasd'
p31
(lp32
S'pass'
p33
aI25
aI1
asS'fdvasvasvd'
p34
(lp35
S'pass'
p36
aI21
aI1
asS'vdsavasdfa'
p37
(lp38
S'pass'
p39
aI26
aI1
asS'davidladen'
p40
(lp41
S'pass'
p42
aI30
aI1
asS'asdvaevasdva'
p43
(lp44
S'pass'
p45
aI24
aI1
asS'fdsafdfasfds'
p46
(lp47
S'pass'
p48
aI22
aI1
asS'sVAAVAV'
p49
(lp50
S'pass'
p51
aI29
aI1
asS'asdfasdfa'
p52
(lp53
S'pass'
p54
aI19
aI1
asS'dfvaergasdvzdsfgqeargsd'
p55
(lp56
S'pass'
p57
aI27
aI1
asS'asdf'
p58
(lp59
S'pass'
p60
aI18
aI1
asS'david'
p61
(lp62
S'pass'
p63
aI1
aI0
as.