(dp0
S'timur'
p1
(S'172.27.99.235'
p2
cdatetime
datetime
p3
(S'\x07\xdd\x0c\x04\x03/#\x03\xadh'
p4
tp5
Rp6
tp7
sS'user'
p8
(S'address'
p9
S'timestamp'
p10
tp11
sS'davidladen'
p12
(S'172.25.98.180'
p13
g3
(S'\x07\xdd\x0c\x04\x032\x06\x00\x00\x00'
p14
tp15
Rp16
tp17
s.