(dp0
S'david1'
p1
(lp2
S'pass2'
p3
aI2
aI0
asS'timur3'
p4
(lp5
S'pass'
p6
aI14
aI1
asS'timur2'
p7
c__builtin__
set
p8
((lp9
I1
aI13
aS'pass'
p10
atp11
Rp12
sS'timur'
p13
g8
((lp14
I1
aI12
aS'pass'
p15
atp16
Rp17
sS'david'
p18
(lp19
S'pass'
p20
aI1
aI0
as.