(dp0
S'testemail2'
p1
(S'172.25.98.53'
p2
cdatetime
datetime
p3
(S'\x07\xdd\x0c\x04\x05\t\x1a\x04\xabP'
p4
tp5
Rp6
tp7
sS'user'
p8
(S'address'
p9
S'timestamp'
p10
tp11
sS'testemail'
p12
(S'172.25.98.53'
p13
g3
(S'\x07\xdd\x0c\x04\x05\x06/\x01(\xe0'
p14
tp15
Rp16
tp17
s.