(dp0
S'2013-12-04 08:27:13.603000'
p1
(S'172.27.123.247'
p2
S'testemail'
p3
tp4
sS'2013-12-04 08:25:02.264000'
p5
(S'172.27.123.247'
p6
S'testemail'
p7
tp8
sS'user'
p9
(S'address'
p10
S'timestamp'
p11
tp12
sS'2013-12-04 08:23:33.915000'
p13
(S'172.27.123.247'
p14
S'testemail'
p15
tp16
s.